Certificate:
    Data:
        Version: 3 (0x2)
        Serial Number: 2 (0x2)
        Signature Algorithm: sha256WithRSAEncryption
        Issuer: C=US, O=Google, OU=Enterprise, CN=Enterprise Subordinate CA
        Validity
            Not Before: Sep 17 22:30:41 2021 GMT
            Not After : Mar 10 22:30:41 2027 GMT
        Subject: C=US, O=Google, OU=Enterprise, CN=client@domain.com
        Subject Public Key Info:
            Public Key Algorithm: rsaEncryption
                RSA Public-Key: (2048 bit)
                Modulus:
                    00:c6:70:8c:29:2d:1f:5b:34:cf:62:31:79:5e:41:
                    f5:ea:77:be:93:81:39:c5:be:d6:13:7c:5e:cc:a9:
                    aa:6f:b7:f0:f7:4e:82:3d:70:c7:85:b0:c7:6d:51:
                    a8:2f:f4:8f:cd:02:e5:a5:9c:38:71:fa:4c:a5:1c:
                    7f:c7:69:7b:1f:6b:48:fa:10:5b:0f:f5:2d:9d:bc:
                    10:56:2c:ee:31:a8:90:fa:c0:c2:d1:50:f4:ac:87:
                    91:4d:33:61:e7:d4:ba:f4:47:ec:67:94:d6:c7:56:
                    ae:db:0e:ce:bc:d0:f3:c4:b6:da:37:39:c9:6d:b0:
                    ea:f3:b9:30:dc:e4:3c:32:a7:ac:e7:0c:7e:dd:4a:
                    5c:41:bf:22:3f:2c:c9:f6:50:38:ea:6e:b5:10:65:
                    96:f8:3a:39:09:13:86:81:fe:17:71:38:80:c0:2c:
                    f7:87:20:a4:27:5b:0d:49:5e:03:63:0e:1f:26:87:
                    4e:44:e2:db:b1:92:12:a1:60:82:70:8a:f1:b0:3c:
                    6e:65:f7:d8:37:fb:d9:19:10:9c:d2:54:17:bc:13:
                    d8:e6:9a:20:13:09:e5:38:5e:7c:1a:70:5a:93:35:
                    27:8d:5d:61:ce:59:a1:91:ce:37:c9:1c:15:71:4d:
                    0b:e3:37:b2:e8:1b:5b:1f:31:4f:eb:52:b0:77:f1:
                    30:f7
                Exponent: 65537 (0x10001)
        X509v3 extensions:
            X509v3 Key Usage: critical
                Digital Signature
            X509v3 Basic Constraints: 
                CA:FALSE
            X509v3 Extended Key Usage: 
                TLS Web Client Authentication
            X509v3 Subject Key Identifier: 
                83:94:24:50:7B:B4:D5:59:32:51:81:77:54:58:E2:6F:CD:D3:CC:7A
            X509v3 Authority Key Identifier: 
                keyid:82:EE:70:73:FA:75:D9:C1:4A:1F:0A:B5:DD:4F:24:67:E9:A4:32:9C

            Authority Information Access: 
                CA Issuers - URI:http://pki.esodemoapp2.com/ca/tls-ca.cer

            X509v3 CRL Distribution Points: 

                Full Name:
                  URI:http://pki.esodemoapp2.com/ca/tls-ca.crl

    Signature Algorithm: sha256WithRSAEncryption
         05:22:fc:36:f9:14:b6:8f:b9:57:77:a1:ee:4f:e3:7a:de:84:
         e1:7d:48:9f:53:e5:7e:57:b0:96:54:0e:8d:22:87:e3:58:9f:
         9b:0c:f0:b9:24:3f:7e:30:fe:84:22:c1:73:bd:ca:e1:90:05:
         e7:ba:a3:de:99:9b:6a:78:dd:24:bc:d5:b7:5f:b9:18:2c:2b:
         cb:d7:b1:30:45:60:0c:2c:06:65:5d:f2:ed:1f:c4:fa:1e:85:
         50:d8:e0:21:fd:98:a1:97:4f:71:21:c7:4b:70:dd:ea:73:97:
         d3:23:76:80:2c:ee:a8:07:e0:41:c4:1d:a2:56:7c:aa:f4:77:
         f6:65:a6:a7:3c:7e:85:4c:a8:2b:f5:ff:5c:97:51:3c:5c:57:
         a1:b0:b8:8b:fe:98:83:e8:49:1b:3d:9b:dc:a6:4d:2f:8e:6d:
         5d:01:2f:11:98:db:58:f8:85:84:aa:f6:de:d5:a5:3d:81:94:
         ab:33:65:21:24:45:51:05:52:76:a4:ce:d0:69:2c:58:35:d7:
         96:92:46:c2:da:a3:cb:5f:9c:1b:50:59:9c:7f:f6:17:3b:5d:
         0a:fd:2f:6e:b6:1b:d3:cf:a7:54:c9:74:61:c2:8e:b5:9c:9c:
         af:d8:77:62:80:3b:e8:80:f3:1a:6e:7a:fa:60:a8:12:84:fc:
         28:13:40:fd
-----BEGIN CERTIFICATE-----
MIIEFjCCAv6gAwIBAgIBAjANBgkqhkiG9w0BAQsFADBXMQswCQYDVQQGEwJVUzEP
MA0GA1UECgwGR29vZ2xlMRMwEQYDVQQLDApFbnRlcnByaXNlMSIwIAYDVQQDDBlF
bnRlcnByaXNlIFN1Ym9yZGluYXRlIENBMB4XDTIxMDkxNzIyMzA0MVoXDTI3MDMx
MDIyMzA0MVowTzELMAkGA1UEBhMCVVMxDzANBgNVBAoMBkdvb2dsZTETMBEGA1UE
CwwKRW50ZXJwcmlzZTEaMBgGA1UEAwwRY2xpZW50QGRvbWFpbi5jb20wggEiMA0G
CSqGSIb3DQEBAQUAA4IBDwAwggEKAoIBAQDGcIwpLR9bNM9iMXleQfXqd76TgTnF
vtYTfF7Mqapvt/D3ToI9cMeFsMdtUagv9I/NAuWlnDhx+kylHH/HaXsfa0j6EFsP
9S2dvBBWLO4xqJD6wMLRUPSsh5FNM2Hn1Lr0R+xnlNbHVq7bDs680PPEtto3Oclt
sOrzuTDc5Dwyp6znDH7dSlxBvyI/LMn2UDjqbrUQZZb4OjkJE4aB/hdxOIDALPeH
IKQnWw1JXgNjDh8mh05E4tuxkhKhYIJwivGwPG5l99g3+9kZEJzSVBe8E9jmmiAT
CeU4XnwacFqTNSeNXWHOWaGRzjfJHBVxTQvjN7LoG1sfMU/rUrB38TD3AgMBAAGj
gfQwgfEwDgYDVR0PAQH/BAQDAgeAMAkGA1UdEwQCMAAwEwYDVR0lBAwwCgYIKwYB
BQUHAwIwHQYDVR0OBBYEFIOUJFB7tNVZMlGBd1RY4m/N08x6MB8GA1UdIwQYMBaA
FILucHP6ddnBSh8Ktd1PJGfppDKcMEQGCCsGAQUFBwEBBDgwNjA0BggrBgEFBQcw
AoYoaHR0cDovL3BraS5lc29kZW1vYXBwMi5jb20vY2EvdGxzLWNhLmNlcjA5BgNV
HR8EMjAwMC6gLKAqhihodHRwOi8vcGtpLmVzb2RlbW9hcHAyLmNvbS9jYS90bHMt
Y2EuY3JsMA0GCSqGSIb3DQEBCwUAA4IBAQAFIvw2+RS2j7lXd6HuT+N63oThfUif
U+V+V7CWVA6NIofjWJ+bDPC5JD9+MP6EIsFzvcrhkAXnuqPemZtqeN0kvNW3X7kY
LCvL17EwRWAMLAZlXfLtH8T6HoVQ2OAh/Zihl09xIcdLcN3qc5fTI3aALO6oB+BB
xB2iVnyq9Hf2ZaanPH6FTKgr9f9cl1E8XFehsLiL/piD6EkbPZvcpk0vjm1dAS8R
mNtY+IWEqvbe1aU9gZSrM2UhJEVRBVJ2pM7QaSxYNdeWkkbC2qPLX5wbUFmcf/YX
O10K/S9uthvTz6dUyXRhwo61nJyv2HdigDvogPMabnr6YKgShPwoE0D9
-----END CERTIFICATE-----
