Certificate:
    Data:
        Version: 3 (0x2)
        Serial Number: 1 (0x1)
        Signature Algorithm: sha256WithRSAEncryption
        Issuer: C=US, O=Google, OU=Enterprise, CN=Enterprise Subordinate CA
        Validity
            Not Before: Sep 17 22:28:22 2021 GMT
            Not After : Mar 10 22:28:22 2027 GMT
        Subject: C=US, O=Google, OU=Enterprise, CN=http.domain.com
        Subject Public Key Info:
            Public Key Algorithm: rsaEncryption
                RSA Public-Key: (2048 bit)
                Modulus:
                    00:ae:8b:4d:00:61:77:e2:bb:51:0a:b6:c1:77:8c:
                    13:6e:5e:bc:90:27:67:c7:af:b6:8b:2d:8d:c6:1d:
                    69:80:e5:66:22:7d:66:f3:72:d6:a5:f5:de:cf:7d:
                    59:e9:57:11:bc:18:7e:b0:48:70:43:1f:6b:da:9b:
                    3f:08:a8:f9:da:e4:5e:9f:81:79:98:d5:41:1b:d4:
                    65:7b:94:d4:e7:64:8a:80:9f:da:a4:53:98:66:1a:
                    cc:d8:ef:7a:e7:d7:9b:81:98:dd:aa:31:0d:41:8a:
                    22:5c:45:d3:0c:b5:7c:37:d3:d8:cd:68:e4:64:79:
                    b5:7d:89:8a:1d:34:9a:7a:d6:ee:39:20:93:93:e0:
                    c0:25:32:15:3d:5d:0d:2e:42:13:39:cf:2b:1b:25:
                    6d:92:0c:9a:09:70:ef:e2:bc:2b:eb:8d:72:a0:62:
                    3c:fe:92:cc:9e:b7:91:6f:8c:e7:39:c7:1a:2c:78:
                    43:e2:8f:9a:5d:cc:01:ae:76:0b:76:16:4e:f2:51:
                    ee:cc:ef:fc:22:0d:b0:03:55:4b:06:8f:15:fd:c6:
                    f7:43:df:99:4e:b4:28:ad:94:ec:2d:1a:ec:4e:25:
                    3f:fb:28:a0:2f:ec:34:c5:08:6f:c6:88:fc:05:db:
                    da:4f:f3:3c:47:c0:39:bb:a4:ce:30:b0:8c:55:a7:
                    b5:c5
                Exponent: 65537 (0x10001)
        X509v3 extensions:
            X509v3 Key Usage: critical
                Digital Signature
            X509v3 Basic Constraints: 
                CA:FALSE
            X509v3 Extended Key Usage: 
                TLS Web Server Authentication
            X509v3 Subject Key Identifier: 
                5E:30:C6:3F:AD:B2:2B:4A:DB:36:51:99:BA:56:84:08:88:F0:F1:0D
            X509v3 Authority Key Identifier: 
                keyid:82:EE:70:73:FA:75:D9:C1:4A:1F:0A:B5:DD:4F:24:67:E9:A4:32:9C

            Authority Information Access: 
                CA Issuers - URI:http://pki.esodemoapp2.com/ca/tls-ca.cer

            X509v3 CRL Distribution Points: 

                Full Name:
                  URI:http://pki.esodemoapp2.com/ca/tls-ca.crl

            X509v3 Subject Alternative Name: 
                DNS:http.domain.com
    Signature Algorithm: sha256WithRSAEncryption
         7a:91:8a:c9:5f:5d:36:12:13:6d:1c:48:d9:fa:1c:87:b5:a4:
         64:90:ee:39:14:96:8f:2c:68:dc:43:9d:ee:81:c8:d7:36:2a:
         8b:a5:a4:c8:28:60:1e:ac:a9:64:da:05:c2:91:5a:21:81:a4:
         0d:66:e6:71:80:8e:a1:79:e8:d0:f7:3e:87:39:91:45:48:c9:
         60:ae:d3:4f:73:aa:cb:10:9e:ba:1c:23:b8:47:d5:e3:ff:29:
         5a:1c:7b:2a:5e:f6:a3:d5:ad:a1:14:58:ba:c5:2c:f5:fe:f9:
         ee:c5:6a:cc:ed:78:77:75:6d:6f:bd:e9:d8:3d:2a:fa:0e:46:
         90:6f:1a:52:c4:24:15:10:51:13:87:05:3a:b2:94:b9:8a:21:
         3f:a5:6d:43:65:99:cf:63:98:d3:72:4e:e2:d2:b7:ee:3a:29:
         a6:12:ca:cf:8a:cf:97:4f:18:17:4f:68:ee:08:da:53:1b:22:
         15:89:aa:6a:d2:6d:14:4c:75:19:a2:3b:1e:7d:1a:4a:b9:a6:
         0e:3a:91:e5:e3:ea:97:d1:fe:d1:41:0f:76:4d:b2:d1:43:86:
         12:31:0b:8b:58:ac:98:a6:a0:b8:06:b0:fb:70:78:d0:c9:2a:
         44:36:65:cb:11:69:1e:ab:38:f8:d8:bc:eb:6d:3b:f1:67:1c:
         ff:31:41:c5
-----BEGIN CERTIFICATE-----
MIIEMjCCAxqgAwIBAgIBATANBgkqhkiG9w0BAQsFADBXMQswCQYDVQQGEwJVUzEP
MA0GA1UECgwGR29vZ2xlMRMwEQYDVQQLDApFbnRlcnByaXNlMSIwIAYDVQQDDBlF
bnRlcnByaXNlIFN1Ym9yZGluYXRlIENBMB4XDTIxMDkxNzIyMjgyMloXDTI3MDMx
MDIyMjgyMlowTTELMAkGA1UEBhMCVVMxDzANBgNVBAoMBkdvb2dsZTETMBEGA1UE
CwwKRW50ZXJwcmlzZTEYMBYGA1UEAwwPaHR0cC5kb21haW4uY29tMIIBIjANBgkq
hkiG9w0BAQEFAAOCAQ8AMIIBCgKCAQEArotNAGF34rtRCrbBd4wTbl68kCdnx6+2
iy2Nxh1pgOVmIn1m83LWpfXez31Z6VcRvBh+sEhwQx9r2ps/CKj52uRen4F5mNVB
G9Rle5TU52SKgJ/apFOYZhrM2O9659ebgZjdqjENQYoiXEXTDLV8N9PYzWjkZHm1
fYmKHTSaetbuOSCTk+DAJTIVPV0NLkITOc8rGyVtkgyaCXDv4rwr641yoGI8/pLM
nreRb4znOccaLHhD4o+aXcwBrnYLdhZO8lHuzO/8Ig2wA1VLBo8V/cb3Q9+ZTrQo
rZTsLRrsTiU/+yigL+w0xQhvxoj8BdvaT/M8R8A5u6TOMLCMVae1xQIDAQABo4IB
ETCCAQ0wDgYDVR0PAQH/BAQDAgeAMAkGA1UdEwQCMAAwEwYDVR0lBAwwCgYIKwYB
BQUHAwEwHQYDVR0OBBYEFF4wxj+tsitK2zZRmbpWhAiI8PENMB8GA1UdIwQYMBaA
FILucHP6ddnBSh8Ktd1PJGfppDKcMEQGCCsGAQUFBwEBBDgwNjA0BggrBgEFBQcw
AoYoaHR0cDovL3BraS5lc29kZW1vYXBwMi5jb20vY2EvdGxzLWNhLmNlcjA5BgNV
HR8EMjAwMC6gLKAqhihodHRwOi8vcGtpLmVzb2RlbW9hcHAyLmNvbS9jYS90bHMt
Y2EuY3JsMBoGA1UdEQQTMBGCD2h0dHAuZG9tYWluLmNvbTANBgkqhkiG9w0BAQsF
AAOCAQEAepGKyV9dNhITbRxI2foch7WkZJDuORSWjyxo3EOd7oHI1zYqi6WkyChg
HqypZNoFwpFaIYGkDWbmcYCOoXno0Pc+hzmRRUjJYK7TT3OqyxCeuhwjuEfV4/8p
Whx7Kl72o9WtoRRYusUs9f757sVqzO14d3Vtb73p2D0q+g5GkG8aUsQkFRBRE4cF
OrKUuYohP6VtQ2WZz2OY03JO4tK37jopphLKz4rPl08YF09o7gjaUxsiFYmqatJt
FEx1GaI7Hn0aSrmmDjqR5ePql9H+0UEPdk2y0UOGEjELi1ismKaguAaw+3B40Mkq
RDZlyxFpHqs4+Ni862078Wcc/zFBxQ==
-----END CERTIFICATE-----
