Certificate:
    Data:
        Version: 3 (0x2)
        Serial Number: 3 (0x3)
        Signature Algorithm: sha256WithRSAEncryption
        Issuer: C=US, O=Google, OU=Enterprise, CN=Enterprise Subordinate CA
        Validity
            Not Before: Sep 17 22:36:27 2021 GMT
            Not After : Mar 10 22:36:27 2027 GMT
        Subject: C=US, O=Google, OU=Enterprise, CN=ocsp.domain.com
        Subject Public Key Info:
            Public Key Algorithm: rsaEncryption
                RSA Public-Key: (2048 bit)
                Modulus:
                    00:ac:3a:5d:de:c1:e4:5f:8e:95:1b:9a:6d:3a:a6:
                    83:fe:3d:23:c1:31:6f:22:77:9e:2e:5c:d0:71:d3:
                    87:7c:18:60:0e:7b:62:b8:e1:5b:e5:35:7c:f8:ab:
                    d5:29:9e:73:93:7c:1b:78:04:6b:cd:06:87:cc:17:
                    28:ba:d8:fd:67:18:ee:d6:fb:20:bd:6f:d3:58:0f:
                    b8:82:a8:96:b0:88:6a:8b:a1:3a:b2:44:52:50:2e:
                    de:c3:32:ea:d9:79:a6:0f:4e:d0:a7:b2:9e:41:66:
                    2e:de:c8:10:e0:a0:46:9c:e4:3d:92:1c:f1:02:d9:
                    04:1e:74:24:56:80:5d:4e:66:8d:80:07:e7:7c:6c:
                    dd:bc:95:ac:0b:60:ca:d9:d1:fd:05:7e:01:26:98:
                    42:ef:b3:3b:1e:52:6e:3c:dd:85:33:3c:98:1d:37:
                    b3:45:09:07:32:fe:c5:a9:f8:47:8c:be:49:52:06:
                    9c:d9:4c:ea:f0:0e:32:e1:78:91:7e:05:21:67:f7:
                    b1:48:ce:01:27:53:9e:f0:4d:01:12:18:e2:c2:26:
                    1f:94:74:8e:8b:77:f7:54:10:f2:ef:48:f9:78:55:
                    05:11:62:bb:3a:03:bb:92:20:e2:ef:b9:b7:83:5e:
                    19:5d:7c:52:e8:37:12:65:03:3f:05:40:1e:66:31:
                    dd:4d
                Exponent: 65537 (0x10001)
        X509v3 extensions:
            X509v3 Key Usage: critical
                Digital Signature
            X509v3 Basic Constraints: 
                CA:FALSE
            X509v3 Extended Key Usage: 
                OCSP Signing
            X509v3 Subject Key Identifier: 
                F1:70:51:57:63:21:B1:6D:E9:1E:72:C3:D8:96:FF:86:63:5E:E6:6B
            X509v3 Authority Key Identifier: 
                keyid:82:EE:70:73:FA:75:D9:C1:4A:1F:0A:B5:DD:4F:24:67:E9:A4:32:9C

            Authority Information Access: 
                CA Issuers - URI:http://pki.esodemoapp2.com/ca/tls-ca.cer

            X509v3 CRL Distribution Points: 

                Full Name:
                  URI:http://pki.esodemoapp2.com/ca/tls-ca.crl

            X509v3 Subject Alternative Name: 
                DNS:ocsp.domain.com
    Signature Algorithm: sha256WithRSAEncryption
         8e:46:5f:f9:a8:12:a9:c1:5a:81:20:05:ad:d2:a7:d7:b0:8c:
         71:0d:19:e4:38:dd:c7:ca:df:fc:77:8f:89:58:aa:86:b8:b6:
         2c:56:b0:8e:fd:08:de:d0:65:95:81:ff:15:99:c7:53:d0:d9:
         87:4d:e7:55:c5:b6:c5:0b:cf:13:0d:cb:c4:71:a5:36:e3:20:
         50:17:19:fd:50:c6:fc:40:46:c4:dd:35:e0:7b:13:83:26:c3:
         53:61:24:e9:03:ce:3b:16:fa:11:2b:a3:aa:ab:a9:19:46:4c:
         e0:df:23:0b:55:49:42:3c:04:a5:62:bf:8a:df:7b:19:04:fa:
         61:11:db:26:c7:0d:b0:84:61:13:17:50:d0:c5:c4:65:6f:09:
         d7:51:c2:8a:5c:a1:d8:2f:dd:c0:8f:fb:a6:83:3d:28:5a:43:
         fc:dd:36:f0:7a:82:71:8b:f9:f5:4b:41:83:a0:6b:4c:a0:ba:
         74:73:a4:1f:97:d4:44:b8:80:5c:73:26:f9:c3:77:f4:12:48:
         26:c3:70:c9:12:2a:a3:84:56:57:a1:c1:e0:a5:11:6f:6f:45:
         fc:e0:49:92:f5:fa:33:e6:52:69:29:da:5e:1f:46:6e:20:e5:
         66:54:c4:e0:fb:0f:3a:0c:7d:5e:8e:9b:cc:d0:b2:9c:93:af:
         15:34:71:16
-----BEGIN CERTIFICATE-----
MIIEMjCCAxqgAwIBAgIBAzANBgkqhkiG9w0BAQsFADBXMQswCQYDVQQGEwJVUzEP
MA0GA1UECgwGR29vZ2xlMRMwEQYDVQQLDApFbnRlcnByaXNlMSIwIAYDVQQDDBlF
bnRlcnByaXNlIFN1Ym9yZGluYXRlIENBMB4XDTIxMDkxNzIyMzYyN1oXDTI3MDMx
MDIyMzYyN1owTTELMAkGA1UEBhMCVVMxDzANBgNVBAoMBkdvb2dsZTETMBEGA1UE
CwwKRW50ZXJwcmlzZTEYMBYGA1UEAwwPb2NzcC5kb21haW4uY29tMIIBIjANBgkq
hkiG9w0BAQEFAAOCAQ8AMIIBCgKCAQEArDpd3sHkX46VG5ptOqaD/j0jwTFvInee
LlzQcdOHfBhgDntiuOFb5TV8+KvVKZ5zk3wbeARrzQaHzBcoutj9Zxju1vsgvW/T
WA+4gqiWsIhqi6E6skRSUC7ewzLq2XmmD07Qp7KeQWYu3sgQ4KBGnOQ9khzxAtkE
HnQkVoBdTmaNgAfnfGzdvJWsC2DK2dH9BX4BJphC77M7HlJuPN2FMzyYHTezRQkH
Mv7FqfhHjL5JUgac2Uzq8A4y4XiRfgUhZ/exSM4BJ1Oe8E0BEhjiwiYflHSOi3f3
VBDy70j5eFUFEWK7OgO7kiDi77m3g14ZXXxS6DcSZQM/BUAeZjHdTQIDAQABo4IB
ETCCAQ0wDgYDVR0PAQH/BAQDAgeAMAkGA1UdEwQCMAAwEwYDVR0lBAwwCgYIKwYB
BQUHAwkwHQYDVR0OBBYEFPFwUVdjIbFt6R5yw9iW/4ZjXuZrMB8GA1UdIwQYMBaA
FILucHP6ddnBSh8Ktd1PJGfppDKcMEQGCCsGAQUFBwEBBDgwNjA0BggrBgEFBQcw
AoYoaHR0cDovL3BraS5lc29kZW1vYXBwMi5jb20vY2EvdGxzLWNhLmNlcjA5BgNV
HR8EMjAwMC6gLKAqhihodHRwOi8vcGtpLmVzb2RlbW9hcHAyLmNvbS9jYS90bHMt
Y2EuY3JsMBoGA1UdEQQTMBGCD29jc3AuZG9tYWluLmNvbTANBgkqhkiG9w0BAQsF
AAOCAQEAjkZf+agSqcFagSAFrdKn17CMcQ0Z5Djdx8rf/HePiViqhri2LFawjv0I
3tBllYH/FZnHU9DZh03nVcW2xQvPEw3LxHGlNuMgUBcZ/VDG/EBGxN014HsTgybD
U2Ek6QPOOxb6ESujqqupGUZM4N8jC1VJQjwEpWK/it97GQT6YRHbJscNsIRhExdQ
0MXEZW8J11HCilyh2C/dwI/7poM9KFpD/N028HqCcYv59UtBg6BrTKC6dHOkH5fU
RLiAXHMm+cN39BJIJsNwyRIqo4RWV6HB4KURb29F/OBJkvX6M+ZSaSnaXh9GbiDl
ZlTE4PsPOgx9Xo6bzNCynJOvFTRxFg==
-----END CERTIFICATE-----
