Certificate:
    Data:
        Version: 3 (0x2)
        Serial Number: 2 (0x2)
        Signature Algorithm: sha256WithRSAEncryption
        Issuer: C=US, O=Google, OU=Enterprise, CN=Enterprise Root CA
        Validity
            Not Before: Sep 17 22:26:09 2021 GMT
            Not After : Sep 17 22:26:09 2031 GMT
        Subject: C=US, O=Google, OU=Enterprise, CN=Enterprise Subordinate CA
        Subject Public Key Info:
            Public Key Algorithm: rsaEncryption
                RSA Public-Key: (2048 bit)
                Modulus:
                    00:b3:c7:90:2e:cb:95:2d:bb:7e:b0:2d:2c:08:bd:
                    89:9d:5e:e7:12:68:d2:9b:6e:69:51:e5:22:50:86:
                    68:e5:2e:2d:92:7a:9b:69:6f:95:2c:c3:84:36:3b:
                    0a:a5:6d:62:a7:fe:0d:4f:c7:8f:bb:74:b3:dc:a3:
                    a4:de:25:31:09:23:1f:a9:7b:20:2c:ab:6d:1d:be:
                    23:fc:13:e0:3e:a9:d6:27:4d:fa:05:d9:28:8c:ac:
                    ee:84:10:93:65:0e:98:1b:94:ac:b4:08:8a:00:95:
                    eb:d9:c5:46:00:70:47:14:4f:88:90:1f:6e:c7:e3:
                    ad:2b:89:5d:bb:83:00:1e:f9:6f:fb:a8:01:bc:2f:
                    88:a2:3d:0e:34:c8:15:d6:b1:33:60:34:09:ea:3b:
                    d5:3d:56:4f:e7:6a:0a:30:9e:64:7e:14:60:49:f2:
                    bb:20:80:06:32:79:9a:4f:06:b7:37:51:91:76:05:
                    80:69:c1:5a:c2:52:89:d1:14:8f:82:d3:f7:75:28:
                    74:ad:e4:fc:bb:31:44:64:7a:d5:10:f4:2e:92:dc:
                    c1:5f:76:73:07:3a:ac:1f:9a:10:28:30:7c:5f:0d:
                    ca:51:d1:0c:4d:8f:bc:8d:6b:35:ee:ea:32:ed:03:
                    c6:4f:7f:eb:84:07:16:df:3e:47:d5:22:70:73:69:
                    91:23
                Exponent: 65537 (0x10001)
        X509v3 extensions:
            X509v3 Key Usage: critical
                Certificate Sign, CRL Sign
            X509v3 Basic Constraints: critical
                CA:TRUE, pathlen:0
            X509v3 Subject Key Identifier: 
                82:EE:70:73:FA:75:D9:C1:4A:1F:0A:B5:DD:4F:24:67:E9:A4:32:9C
            X509v3 Authority Key Identifier: 
                keyid:A5:BA:CF:3E:A6:32:1F:17:5F:F4:33:8E:78:CC:A2:8C:7A:CF:5A:CB

            Authority Information Access: 
                CA Issuers - URI:http://pki.esodemoapp2.com/ca/root-ca.cer

            X509v3 CRL Distribution Points: 

                Full Name:
                  URI:http://pki.esodemoapp2.com/ca/root-ca.crl

    Signature Algorithm: sha256WithRSAEncryption
         12:bd:5a:65:8d:b5:9f:c6:99:e5:3b:50:a7:3c:3e:71:4d:a4:
         d7:30:7b:eb:e9:8b:fb:36:21:74:f5:2e:b6:c1:ec:d8:91:68:
         a6:c8:69:0c:a8:c2:8e:3c:6d:c6:bb:ce:a1:6b:1d:70:71:93:
         0b:e3:4a:18:6e:c8:34:29:59:b7:fa:5d:9a:d3:64:04:22:e4:
         a4:6a:84:dd:a0:08:18:26:61:15:b1:05:6a:bc:6a:4f:62:70:
         7e:10:66:06:4f:a3:5c:2e:c5:a4:24:97:97:fa:0a:7d:d2:f3:
         f9:37:dc:7f:59:67:72:29:95:d6:91:d8:ee:bb:ba:c2:15:e6:
         de:ae:67:87:72:b2:c9:2c:bc:df:d2:d1:50:a6:fa:55:16:be:
         f6:1d:06:7d:a9:c3:25:cd:e3:27:68:c0:22:2a:11:c5:02:92:
         fe:72:c3:dd:ee:6b:2a:91:54:fb:39:81:64:5f:ea:df:22:43:
         26:05:98:a2:8a:a4:86:0f:d8:a1:74:03:79:45:c1:96:02:6e:
         f7:da:c5:e3:3e:48:d0:6d:51:8c:6e:41:27:ef:58:18:a3:05:
         37:bd:e1:4e:58:b7:c2:6c:7e:42:ab:dc:71:ee:e7:a2:86:af:
         ff:ee:83:d0:18:45:c2:5e:01:c3:ef:d9:59:9d:b3:c7:bf:cd:
         c2:01:5a:3f
-----BEGIN CERTIFICATE-----
MIIEDTCCAvWgAwIBAgIBAjANBgkqhkiG9w0BAQsFADBQMQswCQYDVQQGEwJVUzEP
MA0GA1UECgwGR29vZ2xlMRMwEQYDVQQLDApFbnRlcnByaXNlMRswGQYDVQQDDBJF
bnRlcnByaXNlIFJvb3QgQ0EwHhcNMjEwOTE3MjIyNjA5WhcNMzEwOTE3MjIyNjA5
WjBXMQswCQYDVQQGEwJVUzEPMA0GA1UECgwGR29vZ2xlMRMwEQYDVQQLDApFbnRl
cnByaXNlMSIwIAYDVQQDDBlFbnRlcnByaXNlIFN1Ym9yZGluYXRlIENBMIIBIjAN
BgkqhkiG9w0BAQEFAAOCAQ8AMIIBCgKCAQEAs8eQLsuVLbt+sC0sCL2JnV7nEmjS
m25pUeUiUIZo5S4tknqbaW+VLMOENjsKpW1ip/4NT8ePu3Sz3KOk3iUxCSMfqXsg
LKttHb4j/BPgPqnWJ036BdkojKzuhBCTZQ6YG5SstAiKAJXr2cVGAHBHFE+IkB9u
x+OtK4ldu4MAHvlv+6gBvC+Ioj0ONMgV1rEzYDQJ6jvVPVZP52oKMJ5kfhRgSfK7
IIAGMnmaTwa3N1GRdgWAacFawlKJ0RSPgtP3dSh0reT8uzFEZHrVEPQuktzBX3Zz
BzqsH5oQKDB8Xw3KUdEMTY+8jWs17uoy7QPGT3/rhAcW3z5H1SJwc2mRIwIDAQAB
o4HqMIHnMA4GA1UdDwEB/wQEAwIBBjASBgNVHRMBAf8ECDAGAQH/AgEAMB0GA1Ud
DgQWBBSC7nBz+nXZwUofCrXdTyRn6aQynDAfBgNVHSMEGDAWgBSlus8+pjIfF1/0
M454zKKMes9ayzBFBggrBgEFBQcBAQQ5MDcwNQYIKwYBBQUHMAKGKWh0dHA6Ly9w
a2kuZXNvZGVtb2FwcDIuY29tL2NhL3Jvb3QtY2EuY2VyMDoGA1UdHwQzMDEwL6At
oCuGKWh0dHA6Ly9wa2kuZXNvZGVtb2FwcDIuY29tL2NhL3Jvb3QtY2EuY3JsMA0G
CSqGSIb3DQEBCwUAA4IBAQASvVpljbWfxpnlO1CnPD5xTaTXMHvr6Yv7NiF09S62
wezYkWimyGkMqMKOPG3Gu86hax1wcZML40oYbsg0KVm3+l2a02QEIuSkaoTdoAgY
JmEVsQVqvGpPYnB+EGYGT6NcLsWkJJeX+gp90vP5N9x/WWdyKZXWkdjuu7rCFebe
rmeHcrLJLLzf0tFQpvpVFr72HQZ9qcMlzeMnaMAiKhHFApL+csPd7msqkVT7OYFk
X+rfIkMmBZiiiqSGD9ihdAN5RcGWAm732sXjPkjQbVGMbkEn71gYowU3veFOWLfC
bH5Cq9xx7ueihq//7oPQGEXCXgHD79lZnbPHv83CAVo/
-----END CERTIFICATE-----
Certificate:
    Data:
        Version: 3 (0x2)
        Serial Number: 1 (0x1)
        Signature Algorithm: sha256WithRSAEncryption
        Issuer: C=US, O=Google, OU=Enterprise, CN=Enterprise Root CA
        Validity
            Not Before: Sep 17 22:21:13 2021 GMT
            Not After : Sep 17 22:21:13 2031 GMT
        Subject: C=US, O=Google, OU=Enterprise, CN=Enterprise Root CA
        Subject Public Key Info:
            Public Key Algorithm: rsaEncryption
                RSA Public-Key: (2048 bit)
                Modulus:
                    00:cf:4b:5b:e7:16:47:34:93:a6:1c:d3:e4:11:4e:
                    8c:a2:42:91:29:5e:0d:95:83:68:1e:ef:f5:ea:14:
                    6d:71:cc:77:89:e1:52:fe:12:27:be:ec:4f:b2:16:
                    50:b6:ba:38:1d:b6:c6:1d:17:23:60:3d:d6:7c:02:
                    59:50:20:5d:5c:6b:06:9b:e6:18:8e:16:e7:a1:43:
                    11:e5:0c:b7:ae:ba:d9:77:53:a3:7f:e7:43:75:f8:
                    e8:c3:2d:4f:97:53:b2:6b:33:f0:c0:7a:72:01:f9:
                    bf:36:1a:8a:d0:26:83:c4:ea:ea:35:c1:be:9b:cf:
                    35:79:a3:e5:7a:65:0e:e1:6c:fe:39:49:4d:89:15:
                    06:5d:fa:f5:31:d7:83:d2:e8:24:e3:fe:9d:b2:88:
                    39:44:6c:2a:c6:fb:a1:0e:b9:82:18:42:5d:ee:2f:
                    6d:da:04:8c:9b:75:85:aa:b4:9f:8d:72:a5:13:aa:
                    56:5d:a4:b1:e5:1d:9a:fc:d7:fd:3f:ee:be:24:b4:
                    4f:89:94:5f:db:07:30:09:b1:a5:aa:11:44:e3:99:
                    9f:dc:55:ed:04:73:6e:c5:9b:65:05:6a:2c:bc:c1:
                    8e:64:cd:f0:c4:e4:b1:24:40:ce:e9:37:da:d9:ee:
                    ab:a9:ca:4e:0e:b8:78:32:a4:a6:2d:63:fa:cb:2c:
                    2d:55
                Exponent: 65537 (0x10001)
        X509v3 extensions:
            X509v3 Key Usage: critical
                Certificate Sign, CRL Sign
            X509v3 Basic Constraints: critical
                CA:TRUE
            X509v3 Subject Key Identifier: 
                A5:BA:CF:3E:A6:32:1F:17:5F:F4:33:8E:78:CC:A2:8C:7A:CF:5A:CB
            X509v3 Authority Key Identifier: 
                keyid:A5:BA:CF:3E:A6:32:1F:17:5F:F4:33:8E:78:CC:A2:8C:7A:CF:5A:CB

    Signature Algorithm: sha256WithRSAEncryption
         04:0a:92:da:de:ca:5f:6a:0e:0a:0a:a0:c3:5e:66:37:46:61:
         ce:ac:6c:a2:d1:18:b0:f0:3d:da:23:32:12:74:6c:42:9c:4d:
         ec:66:cd:e3:93:64:70:16:0a:3f:16:19:12:a0:9f:ce:48:18:
         b9:a6:c8:f9:cc:8a:36:2e:d3:38:4e:e1:70:02:d5:ff:7f:10:
         fa:56:21:97:15:64:9e:71:f8:9a:0e:42:b3:f3:cb:00:74:3b:
         b1:a2:58:31:d5:5f:6b:16:16:cf:56:c0:88:d9:49:26:d8:5a:
         cc:3b:e9:6a:9c:35:88:7a:e1:a0:02:6c:b4:d9:4a:9a:1d:b6:
         0e:75:9d:b4:8b:59:b9:cb:6e:39:0f:82:47:3c:00:25:ed:ef:
         90:91:e4:c3:58:b1:74:fc:04:a5:a2:8d:17:fd:dc:52:56:37:
         80:ff:eb:c6:2d:df:4b:40:d7:33:e4:6e:94:df:f2:b7:ac:c1:
         4a:de:0b:84:22:45:ac:8b:4a:58:10:1e:40:f7:d4:44:74:69:
         8d:50:d7:dc:ef:7a:a6:13:69:ed:15:7a:5a:4e:1f:ee:27:11:
         cd:f6:80:e3:b7:bc:73:5b:f0:49:50:d2:f3:97:07:4a:97:7c:
         60:47:25:31:0d:fe:32:5c:63:2e:65:ab:70:72:fd:a0:61:f6:
         e1:96:a7:68
-----BEGIN CERTIFICATE-----
MIIDfjCCAmagAwIBAgIBATANBgkqhkiG9w0BAQsFADBQMQswCQYDVQQGEwJVUzEP
MA0GA1UECgwGR29vZ2xlMRMwEQYDVQQLDApFbnRlcnByaXNlMRswGQYDVQQDDBJF
bnRlcnByaXNlIFJvb3QgQ0EwHhcNMjEwOTE3MjIyMTEzWhcNMzEwOTE3MjIyMTEz
WjBQMQswCQYDVQQGEwJVUzEPMA0GA1UECgwGR29vZ2xlMRMwEQYDVQQLDApFbnRl
cnByaXNlMRswGQYDVQQDDBJFbnRlcnByaXNlIFJvb3QgQ0EwggEiMA0GCSqGSIb3
DQEBAQUAA4IBDwAwggEKAoIBAQDPS1vnFkc0k6Yc0+QRToyiQpEpXg2Vg2ge7/Xq
FG1xzHeJ4VL+Eie+7E+yFlC2ujgdtsYdFyNgPdZ8AllQIF1cawab5hiOFuehQxHl
DLeuutl3U6N/50N1+OjDLU+XU7JrM/DAenIB+b82GorQJoPE6uo1wb6bzzV5o+V6
ZQ7hbP45SU2JFQZd+vUx14PS6CTj/p2yiDlEbCrG+6EOuYIYQl3uL23aBIybdYWq
tJ+NcqUTqlZdpLHlHZr81/0/7r4ktE+JlF/bBzAJsaWqEUTjmZ/cVe0Ec27Fm2UF
aiy8wY5kzfDE5LEkQM7pN9rZ7qupyk4OuHgypKYtY/rLLC1VAgMBAAGjYzBhMA4G
A1UdDwEB/wQEAwIBBjAPBgNVHRMBAf8EBTADAQH/MB0GA1UdDgQWBBSlus8+pjIf
F1/0M454zKKMes9ayzAfBgNVHSMEGDAWgBSlus8+pjIfF1/0M454zKKMes9ayzAN
BgkqhkiG9w0BAQsFAAOCAQEABAqS2t7KX2oOCgqgw15mN0ZhzqxsotEYsPA92iMy
EnRsQpxN7GbN45NkcBYKPxYZEqCfzkgYuabI+cyKNi7TOE7hcALV/38Q+lYhlxVk
nnH4mg5Cs/PLAHQ7saJYMdVfaxYWz1bAiNlJJthazDvpapw1iHrhoAJstNlKmh22
DnWdtItZuctuOQ+CRzwAJe3vkJHkw1ixdPwEpaKNF/3cUlY3gP/rxi3fS0DXM+Ru
lN/yt6zBSt4LhCJFrItKWBAeQPfURHRpjVDX3O96phNp7RV6Wk4f7icRzfaA47e8
c1vwSVDS85cHSpd8YEclMQ3+MlxjLmWrcHL9oGH24ZanaA==
-----END CERTIFICATE-----
Certificate:
    Data:
        Version: 3 (0x2)
        Serial Number: 3 (0x3)
        Signature Algorithm: sha256WithRSAEncryption
        Issuer: C=US, O=Google, OU=Enterprise, CN=Enterprise Subordinate CA
        Validity
            Not Before: Sep 17 22:36:27 2021 GMT
            Not After : Mar 10 22:36:27 2027 GMT
        Subject: C=US, O=Google, OU=Enterprise, CN=ocsp.domain.com
        Subject Public Key Info:
            Public Key Algorithm: rsaEncryption
                RSA Public-Key: (2048 bit)
                Modulus:
                    00:ac:3a:5d:de:c1:e4:5f:8e:95:1b:9a:6d:3a:a6:
                    83:fe:3d:23:c1:31:6f:22:77:9e:2e:5c:d0:71:d3:
                    87:7c:18:60:0e:7b:62:b8:e1:5b:e5:35:7c:f8:ab:
                    d5:29:9e:73:93:7c:1b:78:04:6b:cd:06:87:cc:17:
                    28:ba:d8:fd:67:18:ee:d6:fb:20:bd:6f:d3:58:0f:
                    b8:82:a8:96:b0:88:6a:8b:a1:3a:b2:44:52:50:2e:
                    de:c3:32:ea:d9:79:a6:0f:4e:d0:a7:b2:9e:41:66:
                    2e:de:c8:10:e0:a0:46:9c:e4:3d:92:1c:f1:02:d9:
                    04:1e:74:24:56:80:5d:4e:66:8d:80:07:e7:7c:6c:
                    dd:bc:95:ac:0b:60:ca:d9:d1:fd:05:7e:01:26:98:
                    42:ef:b3:3b:1e:52:6e:3c:dd:85:33:3c:98:1d:37:
                    b3:45:09:07:32:fe:c5:a9:f8:47:8c:be:49:52:06:
                    9c:d9:4c:ea:f0:0e:32:e1:78:91:7e:05:21:67:f7:
                    b1:48:ce:01:27:53:9e:f0:4d:01:12:18:e2:c2:26:
                    1f:94:74:8e:8b:77:f7:54:10:f2:ef:48:f9:78:55:
                    05:11:62:bb:3a:03:bb:92:20:e2:ef:b9:b7:83:5e:
                    19:5d:7c:52:e8:37:12:65:03:3f:05:40:1e:66:31:
                    dd:4d
                Exponent: 65537 (0x10001)
        X509v3 extensions:
            X509v3 Key Usage: critical
                Digital Signature
            X509v3 Basic Constraints: 
                CA:FALSE
            X509v3 Extended Key Usage: 
                OCSP Signing
            X509v3 Subject Key Identifier: 
                F1:70:51:57:63:21:B1:6D:E9:1E:72:C3:D8:96:FF:86:63:5E:E6:6B
            X509v3 Authority Key Identifier: 
                keyid:82:EE:70:73:FA:75:D9:C1:4A:1F:0A:B5:DD:4F:24:67:E9:A4:32:9C

            Authority Information Access: 
                CA Issuers - URI:http://pki.esodemoapp2.com/ca/tls-ca.cer

            X509v3 CRL Distribution Points: 

                Full Name:
                  URI:http://pki.esodemoapp2.com/ca/tls-ca.crl

            X509v3 Subject Alternative Name: 
                DNS:ocsp.domain.com
    Signature Algorithm: sha256WithRSAEncryption
         8e:46:5f:f9:a8:12:a9:c1:5a:81:20:05:ad:d2:a7:d7:b0:8c:
         71:0d:19:e4:38:dd:c7:ca:df:fc:77:8f:89:58:aa:86:b8:b6:
         2c:56:b0:8e:fd:08:de:d0:65:95:81:ff:15:99:c7:53:d0:d9:
         87:4d:e7:55:c5:b6:c5:0b:cf:13:0d:cb:c4:71:a5:36:e3:20:
         50:17:19:fd:50:c6:fc:40:46:c4:dd:35:e0:7b:13:83:26:c3:
         53:61:24:e9:03:ce:3b:16:fa:11:2b:a3:aa:ab:a9:19:46:4c:
         e0:df:23:0b:55:49:42:3c:04:a5:62:bf:8a:df:7b:19:04:fa:
         61:11:db:26:c7:0d:b0:84:61:13:17:50:d0:c5:c4:65:6f:09:
         d7:51:c2:8a:5c:a1:d8:2f:dd:c0:8f:fb:a6:83:3d:28:5a:43:
         fc:dd:36:f0:7a:82:71:8b:f9:f5:4b:41:83:a0:6b:4c:a0:ba:
         74:73:a4:1f:97:d4:44:b8:80:5c:73:26:f9:c3:77:f4:12:48:
         26:c3:70:c9:12:2a:a3:84:56:57:a1:c1:e0:a5:11:6f:6f:45:
         fc:e0:49:92:f5:fa:33:e6:52:69:29:da:5e:1f:46:6e:20:e5:
         66:54:c4:e0:fb:0f:3a:0c:7d:5e:8e:9b:cc:d0:b2:9c:93:af:
         15:34:71:16
-----BEGIN CERTIFICATE-----
MIIEMjCCAxqgAwIBAgIBAzANBgkqhkiG9w0BAQsFADBXMQswCQYDVQQGEwJVUzEP
MA0GA1UECgwGR29vZ2xlMRMwEQYDVQQLDApFbnRlcnByaXNlMSIwIAYDVQQDDBlF
bnRlcnByaXNlIFN1Ym9yZGluYXRlIENBMB4XDTIxMDkxNzIyMzYyN1oXDTI3MDMx
MDIyMzYyN1owTTELMAkGA1UEBhMCVVMxDzANBgNVBAoMBkdvb2dsZTETMBEGA1UE
CwwKRW50ZXJwcmlzZTEYMBYGA1UEAwwPb2NzcC5kb21haW4uY29tMIIBIjANBgkq
hkiG9w0BAQEFAAOCAQ8AMIIBCgKCAQEArDpd3sHkX46VG5ptOqaD/j0jwTFvInee
LlzQcdOHfBhgDntiuOFb5TV8+KvVKZ5zk3wbeARrzQaHzBcoutj9Zxju1vsgvW/T
WA+4gqiWsIhqi6E6skRSUC7ewzLq2XmmD07Qp7KeQWYu3sgQ4KBGnOQ9khzxAtkE
HnQkVoBdTmaNgAfnfGzdvJWsC2DK2dH9BX4BJphC77M7HlJuPN2FMzyYHTezRQkH
Mv7FqfhHjL5JUgac2Uzq8A4y4XiRfgUhZ/exSM4BJ1Oe8E0BEhjiwiYflHSOi3f3
VBDy70j5eFUFEWK7OgO7kiDi77m3g14ZXXxS6DcSZQM/BUAeZjHdTQIDAQABo4IB
ETCCAQ0wDgYDVR0PAQH/BAQDAgeAMAkGA1UdEwQCMAAwEwYDVR0lBAwwCgYIKwYB
BQUHAwkwHQYDVR0OBBYEFPFwUVdjIbFt6R5yw9iW/4ZjXuZrMB8GA1UdIwQYMBaA
FILucHP6ddnBSh8Ktd1PJGfppDKcMEQGCCsGAQUFBwEBBDgwNjA0BggrBgEFBQcw
AoYoaHR0cDovL3BraS5lc29kZW1vYXBwMi5jb20vY2EvdGxzLWNhLmNlcjA5BgNV
HR8EMjAwMC6gLKAqhihodHRwOi8vcGtpLmVzb2RlbW9hcHAyLmNvbS9jYS90bHMt
Y2EuY3JsMBoGA1UdEQQTMBGCD29jc3AuZG9tYWluLmNvbTANBgkqhkiG9w0BAQsF
AAOCAQEAjkZf+agSqcFagSAFrdKn17CMcQ0Z5Djdx8rf/HePiViqhri2LFawjv0I
3tBllYH/FZnHU9DZh03nVcW2xQvPEw3LxHGlNuMgUBcZ/VDG/EBGxN014HsTgybD
U2Ek6QPOOxb6ESujqqupGUZM4N8jC1VJQjwEpWK/it97GQT6YRHbJscNsIRhExdQ
0MXEZW8J11HCilyh2C/dwI/7poM9KFpD/N028HqCcYv59UtBg6BrTKC6dHOkH5fU
RLiAXHMm+cN39BJIJsNwyRIqo4RWV6HB4KURb29F/OBJkvX6M+ZSaSnaXh9GbiDl
ZlTE4PsPOgx9Xo6bzNCynJOvFTRxFg==
-----END CERTIFICATE-----
